(dp0
I8
(dp1
S'both'
p2
(lp3
(i__main__
Workload
p4
(dp5
S'benchmarks'
p6
(lp7
S's6-lbm'
p8
aS's6-cactusADM'
p9
aS'galgel0'
p10
aS'equake0'
p11
aS's6-leslie3d'
p12
aS's6-astar'
p13
aS's6-sphinx3'
p14
aS'vortex10'
p15
asba(i__main__
Workload
p16
(dp17
g6
(lp18
S'wupwise0'
p19
aS's6-zeusmp'
p20
ag13
ag15
aS's6-gcc'
p21
ag9
aS'facerec0'
p22
ag10
asba(i__main__
Workload
p23
(dp24
g6
(lp25
g11
aS'fma3d0'
p26
ag22
aS'ammp0'
p27
ag8
ag20
aS'apsi0'
p28
ag19
asba(i__main__
Workload
p29
(dp30
g6
(lp31
S'mcf0'
p32
ag10
ag13
aS's6-omnetpp'
p33
ag9
ag27
ag26
ag14
asba(i__main__
Workload
p34
(dp35
g6
(lp36
g15
aS's6-bzip2'
p37
ag28
ag11
ag33
ag32
ag21
ag20
asba(i__main__
Workload
p38
(dp39
g6
(lp40
g26
ag28
ag11
ag20
aS'bzip0'
p41
ag22
ag33
ag14
asba(i__main__
Workload
p42
(dp43
g6
(lp44
g8
ag37
ag27
ag22
ag32
ag14
ag15
ag28
asba(i__main__
Workload
p45
(dp46
g6
(lp47
g20
ag14
ag28
ag27
ag41
aS's6-mcf'
p48
ag12
ag22
asba(i__main__
Workload
p49
(dp50
g6
(lp51
g37
ag27
ag12
ag13
ag20
ag11
ag28
ag15
asba(i__main__
Workload
p52
(dp53
g6
(lp54
g19
ag33
ag14
ag13
ag22
ag20
ag27
ag48
asbasS'none'
p55
(lp56
(i__main__
Workload
p57
(dp58
g6
(lp59
S's6-gobmk'
p60
aS's6-sjeng'
p61
aS's6-gromacs'
p62
aS's6-namd'
p63
aS's6-wrf'
p64
aS's6-bwaves'
p65
aS'crafty0'
p66
aS'parser0'
p67
asba(i__main__
Workload
p68
(dp69
g6
(lp70
S's6-h264ref'
p71
aS's6-gamess'
p72
ag62
ag63
ag65
aS'eon0'
p73
ag67
ag60
asba(i__main__
Workload
p74
(dp75
g6
(lp76
S'gzip0'
p77
ag65
ag72
aS's6-povray'
p78
ag67
ag71
ag60
ag63
asba(i__main__
Workload
p79
(dp80
g6
(lp81
g65
ag61
ag67
ag64
ag77
aS'mesa0'
p82
ag62
ag63
asba(i__main__
Workload
p83
(dp84
g6
(lp85
g65
ag63
ag64
ag73
ag61
ag78
ag66
ag72
asba(i__main__
Workload
p86
(dp87
g6
(lp88
g82
ag63
ag61
ag67
ag72
ag65
ag73
ag78
asba(i__main__
Workload
p89
(dp90
g6
(lp91
g73
ag82
ag77
ag71
ag62
ag78
ag60
ag61
asba(i__main__
Workload
p92
(dp93
g6
(lp94
g66
ag67
ag78
ag71
ag60
ag62
ag77
ag73
asba(i__main__
Workload
p95
(dp96
g6
(lp97
g78
ag67
ag72
ag63
ag66
ag60
ag73
ag64
asba(i__main__
Workload
p98
(dp99
g6
(lp100
g71
ag66
ag67
ag78
ag82
ag77
ag64
ag61
asbasS'bw'
p101
(lp102
(i__main__
Workload
p103
(dp104
g6
(lp105
S'gap0'
p106
aS's6-libquantum'
p107
aS's6-milc'
p108
aS's6-gemsFDTD'
p109
aS'swim0'
p110
aS'lucas0'
p111
aS'mgrid0'
p112
aS'applu0'
p113
asba(i__main__
Workload
p114
(dp115
g6
(lp116
S's6-soplex'
p117
ag110
ag109
ag113
ag112
ag111
ag108
ag106
asba(i__main__
Workload
p118
(dp119
g6
(lp120
g107
ag111
ag109
ag117
ag106
ag112
ag113
ag108
asba(i__main__
Workload
p121
(dp122
g6
(lp123
g108
ag110
ag112
ag113
ag107
ag106
ag111
ag109
asba(i__main__
Workload
p124
(dp125
g6
(lp126
g112
ag107
ag111
ag117
ag108
ag106
ag109
ag110
asba(i__main__
Workload
p127
(dp128
g6
(lp129
g112
ag109
ag110
ag111
ag107
ag108
ag117
ag113
asba(i__main__
Workload
p130
(dp131
g6
(lp132
g106
ag111
ag108
ag109
ag112
ag110
ag117
ag113
asba(i__main__
Workload
p133
(dp134
g6
(lp135
g110
ag108
ag112
ag111
ag109
ag117
ag107
ag113
asba(i__main__
Workload
p136
(dp137
g6
(lp138
g107
ag117
ag108
ag109
ag112
ag111
ag113
ag106
asba(i__main__
Workload
p139
(dp140
g6
(lp141
g109
ag111
ag117
ag113
ag106
ag108
ag107
ag112
asbasS'cache'
p142
(lp143
ssI16
(dp144
g2
(lp145
(i__main__
Workload
p146
(dp147
g6
(lp148
g32
ag13
ag41
ag20
ag26
ag11
ag8
ag28
ag12
ag19
ag27
ag48
ag14
ag37
ag22
ag33
asba(i__main__
Workload
p149
(dp150
g6
(lp151
g26
ag32
ag21
ag28
ag22
ag48
ag33
ag8
ag20
ag12
ag10
ag14
ag11
ag19
ag9
ag41
asba(i__main__
Workload
p152
(dp153
g6
(lp154
g11
ag28
ag32
ag9
ag26
ag48
ag19
ag13
ag8
ag41
ag20
ag12
ag37
ag15
ag22
ag14
asba(i__main__
Workload
p155
(dp156
g6
(lp157
g33
ag28
ag27
ag21
ag20
ag48
ag15
ag22
ag14
ag32
ag11
ag37
ag26
ag8
ag19
ag41
asba(i__main__
Workload
p158
(dp159
g6
(lp160
g28
ag10
ag22
ag8
ag15
ag21
ag37
ag20
ag13
ag9
ag33
ag26
ag48
ag27
ag12
ag32
asba(i__main__
Workload
p161
(dp162
g6
(lp163
g11
ag21
ag8
ag9
ag22
ag37
ag13
ag41
ag33
ag15
ag14
ag28
ag12
ag20
ag26
ag10
asba(i__main__
Workload
p164
(dp165
g6
(lp166
g33
ag28
ag27
ag13
ag26
ag19
ag14
ag48
ag11
ag21
ag8
ag12
ag15
ag41
ag20
ag10
asba(i__main__
Workload
p167
(dp168
g6
(lp169
g33
ag27
ag9
ag14
ag41
ag13
ag15
ag21
ag11
ag32
ag20
ag28
ag8
ag19
ag10
ag22
asba(i__main__
Workload
p170
(dp171
g6
(lp172
g27
ag32
ag28
ag13
ag8
ag37
ag14
ag10
ag9
ag21
ag11
ag20
ag26
ag22
ag48
ag33
asba(i__main__
Workload
p173
(dp174
g6
(lp175
g48
ag15
ag10
ag12
ag19
ag22
ag13
ag33
ag27
ag26
ag28
ag11
ag9
ag37
ag41
ag32
asbasg55
(lp176
sg101
(lp177
sg142
(lp178
ssI4
(dp179
g2
(lp180
(i__main__
Workload
p181
(dp182
g6
(lp183
g14
ag15
ag9
ag22
asba(i__main__
Workload
p184
(dp185
g6
(lp186
g27
ag14
ag48
ag19
asba(i__main__
Workload
p187
(dp188
g6
(lp189
g33
ag21
ag13
ag14
asba(i__main__
Workload
p190
(dp191
g6
(lp192
g19
ag27
ag32
ag15
asba(i__main__
Workload
p193
(dp194
g6
(lp195
g33
ag12
ag28
ag32
asba(i__main__
Workload
p196
(dp197
g6
(lp198
g28
ag13
ag15
ag48
asba(i__main__
Workload
p199
(dp200
g6
(lp201
g8
ag11
ag10
ag21
asba(i__main__
Workload
p202
(dp203
g6
(lp204
g19
ag10
ag28
ag11
asba(i__main__
Workload
p205
(dp206
g6
(lp207
g9
ag13
ag12
ag10
asba(i__main__
Workload
p208
(dp209
g6
(lp210
g15
ag12
ag13
ag33
asbasg55
(lp211
(i__main__
Workload
p212
(dp213
g6
(lp214
g82
ag60
ag62
ag71
asba(i__main__
Workload
p215
(dp216
g6
(lp217
g71
ag61
ag65
ag62
asba(i__main__
Workload
p218
(dp219
g6
(lp220
g60
ag71
ag61
ag66
asba(i__main__
Workload
p221
(dp222
g6
(lp223
g63
ag71
ag65
ag61
asba(i__main__
Workload
p224
(dp225
g6
(lp226
g60
ag65
ag62
ag77
asba(i__main__
Workload
p227
(dp228
g6
(lp229
g61
ag63
ag72
ag66
asba(i__main__
Workload
p230
(dp231
g6
(lp232
g60
ag78
ag61
ag71
asba(i__main__
Workload
p233
(dp234
g6
(lp235
g67
ag66
ag78
ag72
asba(i__main__
Workload
p236
(dp237
g6
(lp238
g72
ag64
ag62
ag63
asba(i__main__
Workload
p239
(dp240
g6
(lp241
g60
ag62
ag63
ag72
asbasg101
(lp242
(i__main__
Workload
p243
(dp244
g6
(lp245
g113
ag108
ag109
ag117
asba(i__main__
Workload
p246
(dp247
g6
(lp248
g111
ag108
ag117
ag106
asba(i__main__
Workload
p249
(dp250
g6
(lp251
g110
ag106
ag108
ag117
asba(i__main__
Workload
p252
(dp253
g6
(lp254
g107
ag110
ag111
ag106
asba(i__main__
Workload
p255
(dp256
g6
(lp257
g108
ag117
ag107
ag106
asba(i__main__
Workload
p258
(dp259
g6
(lp260
g107
ag112
ag108
ag117
asba(i__main__
Workload
p261
(dp262
g6
(lp263
g111
ag107
ag113
ag106
asba(i__main__
Workload
p264
(dp265
g6
(lp266
g107
ag117
ag113
ag109
asba(i__main__
Workload
p267
(dp268
g6
(lp269
g111
ag106
ag117
ag108
asba(i__main__
Workload
p270
(dp271
g6
(lp272
g106
ag112
ag111
ag113
asbasg142
(lp273
(i__main__
Workload
p274
(dp275
g6
(lp276
S's6-dealII'
p277
aS'twolf0'
p278
aS'sixtrack0'
p279
aS's6-hmmer'
p280
asba(i__main__
Workload
p281
(dp282
g6
(lp283
g277
ag279
aS'vpr0'
p284
ag278
asba(i__main__
Workload
p285
(dp286
g6
(lp287
g278
ag277
ag284
ag279
asba(i__main__
Workload
p288
(dp289
g6
(lp290
g284
ag279
ag278
ag280
asba(i__main__
Workload
p291
(dp292
g6
(lp293
g284
ag277
ag279
ag278
asba(i__main__
Workload
p294
(dp295
g6
(lp296
g278
ag277
ag279
ag280
asba(i__main__
Workload
p297
(dp298
g6
(lp299
g284
ag278
ag277
ag279
asba(i__main__
Workload
p300
(dp301
g6
(lp302
g280
ag277
ag278
ag284
asba(i__main__
Workload
p303
(dp304
g6
(lp305
g280
ag278
ag279
ag277
asba(i__main__
Workload
p306
(dp307
g6
(lp308
g284
ag277
ag280
ag278
asbass.